target datalayout = "e-m:e-p270:32:32-p271:32:32-p272:64:64-i64:64-i128:128-f80:128-n8:16:32:64-S128"
target triple = "x86_64-pc-linux-gnu"

%"class.icu_77::UCharCharacterIterator" = type { %"class.icu_77::CharacterIterator", ptr }
%"class.icu_77::CharacterIterator" = type { %"class.icu_77::ForwardCharacterIterator", i32, i32, i32, i32 }
%"class.icu_77::ForwardCharacterIterator" = type { %"class.icu_77::UObject" }
%"class.icu_77::UObject" = type { ptr }
%"class.icu_77::ConstChar16Ptr" = type { ptr }

; Function Attrs: inlinehint mustprogress nounwind uwtable
define linkonce_odr noundef ptr @_ZNK6icu_7714ConstChar16Ptr3getEv(ptr noundef nonnull align 8 dereferenceable(8) %0) #6 comdat align 2 {
  %2 = alloca ptr, align 8
  store ptr %0, ptr %2, align 8, !tbaa !17
  %3 = load ptr, ptr %2, align 8
  %4 = getelementptr inbounds nuw %"class.icu_77::ConstChar16Ptr", ptr %3, i32 0, i32 0
  %5 = load ptr, ptr %4, align 8, !tbaa !41
  ret ptr %5
}

; Function Attrs: inlinehint mustprogress uwtable
define linkonce_odr noundef ptr @_ZNK6icu_7714ConstChar16PtrcvPKDsEv(ptr noundef nonnull align 8 dereferenceable(8) %0) #3 comdat align 2 {
  %2 = alloca ptr, align 8
  store ptr %0, ptr %2, align 8, !tbaa !17
  %3 = load ptr, ptr %2, align 8
  %4 = call noundef ptr @_ZNK6icu_7714ConstChar16Ptr3getEv(ptr noundef nonnull align 8 dereferenceable(8) %3)
  ret ptr %4
}

; Function Attrs: mustprogress uwtable
define void @_ZN6icu_7722UCharCharacterIteratorC2ENS_14ConstChar16PtrEi(ptr noundef nonnull align 8 dereferenceable(32) %0, ptr noundef %1, i32 noundef %2) unnamed_addr #1 align 2 personality ptr @__gxx_personality_v0 {
  %4 = alloca ptr, align 8
  %5 = alloca ptr, align 8
  %6 = alloca i32, align 4
  %7 = alloca ptr, align 8
  %8 = alloca i32, align 4
  store ptr %0, ptr %4, align 8, !tbaa !3
  store ptr %1, ptr %5, align 8, !tbaa !17
  store i32 %2, ptr %6, align 4, !tbaa !19
  %9 = load ptr, ptr %4, align 8
  %10 = call noundef ptr @_ZNK6icu_7714ConstChar16PtrcvPKDsEv(ptr noundef nonnull align 8 dereferenceable(8) %1)
  %11 = icmp ne ptr %10, null
  br i1 %11, label %12, label %22

12:                                               ; preds = %3
  %13 = load i32, ptr %6, align 4, !tbaa !19
  %14 = icmp sge i32 %13, 0
  br i1 %14, label %15, label %17

15:                                               ; preds = %12
  %16 = load i32, ptr %6, align 4, !tbaa !19
  br label %20

17:                                               ; preds = %12
  %18 = call noundef ptr @_ZNK6icu_7714ConstChar16PtrcvPKDsEv(ptr noundef nonnull align 8 dereferenceable(8) %1)
  %19 = call i32 @u_strlen_77(ptr noundef %18)
  br label %20

20:                                               ; preds = %17, %15
  %21 = phi i32 [ %16, %15 ], [ %19, %17 ]
  br label %23

22:                                               ; preds = %3
  br label %23

23:                                               ; preds = %22, %20
  %24 = phi i32 [ %21, %20 ], [ 0, %22 ]
  call void @_ZN6icu_7717CharacterIteratorC2Ei(ptr noundef nonnull align 8 dereferenceable(24) %9, i32 noundef %24)
  store ptr getelementptr inbounds inrange(-16, 216) ({ [29 x ptr] }, ptr @_ZTVN6icu_7722UCharCharacterIteratorE, i32 0, i32 0, i32 2), ptr %9, align 8, !tbaa !8
  %25 = getelementptr inbounds nuw %"class.icu_77::UCharCharacterIterator", ptr %9, i32 0, i32 1
  %26 = invoke noundef ptr @_ZNK6icu_7714ConstChar16PtrcvPKDsEv(ptr noundef nonnull align 8 dereferenceable(8) %1)
          to label %27 unwind label %28

27:                                               ; preds = %23
  store ptr %26, ptr %25, align 8, !tbaa !10
  ret void

28:                                               ; preds = %23
  %29 = landingpad { ptr, i32 }
          cleanup
  %30 = extractvalue { ptr, i32 } %29, 0
  store ptr %30, ptr %7, align 8
  %31 = extractvalue { ptr, i32 } %29, 1
  store i32 %31, ptr %8, align 4
  call void @_ZN6icu_7717CharacterIteratorD2Ev(ptr noundef nonnull align 8 dereferenceable(24) %9) #7
  br label %32

32:                                               ; preds = %28
  %33 = load ptr, ptr %7, align 8
  %34 = load i32, ptr %8, align 4
  %35 = insertvalue { ptr, i32 } poison, ptr %33, 0
  %36 = insertvalue { ptr, i32 } %35, i32 %34, 1
  resume { ptr, i32 } %36
}