; Function Attrs: mustprogress uwtable
define void @_ZN6icu_7722UCharCharacterIteratorC2ENS_14ConstChar16PtrEi(ptr noundef nonnull align 8 dereferenceable(32) %0, ptr noundef readonly captures(none) %1, i32 noundef %2) unnamed_addr #1 align 2 personality ptr @__gxx_personality_v0 {
  %4 = load ptr, ptr %1, align 8, !tbaa !15
  %.not = icmp eq ptr %4, null
  br i1 %.not, label %9, label %5

5:                                                ; preds = %3
  %6 = icmp sgt i32 %2, -1
  br i1 %6, label %9, label %7

7:                                                ; preds = %5
  %8 = tail call i32 @u_strlen_77(ptr noundef nonnull %4)
  br label %9

9:                                                ; preds = %7, %3, %5
  %10 = phi i32 [ %8, %7 ], [ 0, %3 ], [ %2, %5 ]
  tail call void @_ZN6icu_7717CharacterIteratorC2Ei(ptr noundef nonnull align 8 dereferenceable(24) %0, i32 noundef %10)
  store ptr getelementptr inbounds nuw inrange(-16, 216) (i8, ptr @_ZTVN6icu_7722UCharCharacterIteratorE, i64 16), ptr %0, align 8, !tbaa !3
  %11 = load ptr, ptr %1, align 8, !tbaa !15
  %12 = getelementptr inbounds nuw i8, ptr %0, i64 24
  store ptr %11, ptr %12, align 8, !tbaa !6
  ret void
}